target datalayout = "e-m:e-p270:32:32-p271:32:32-p272:64:64-i64:64-i128:128-f80:128-n8:16:32:64-S128"
target triple = "x86_64-pc-linux-gnu"

%struct.lean_object = type { i32, i32 }

; Function Attrs: inlinehint nounwind uwtable
define internal ptr @lean_usize_to_nat(i64 noundef %0) #1 {
  %2 = alloca ptr, align 8
  %3 = alloca i64, align 8
  store i64 %0, ptr %3, align 8, !tbaa !8
  %4 = load i64, ptr %3, align 8, !tbaa !8
  %5 = icmp ule i64 %4, 9223372036854775807
  %6 = zext i1 %5 to i32
  %7 = sext i32 %6 to i64
  %8 = call i64 @llvm.expect.i64(i64 %7, i64 1)
  %9 = icmp ne i64 %8, 0
  br i1 %9, label %10, label %13

10:                                               ; preds = %1
  %11 = load i64, ptr %3, align 8, !tbaa !8
  %12 = call ptr @lean_box(i64 noundef %11)
  store ptr %12, ptr %2, align 8
  br label %16

13:                                               ; preds = %1
  %14 = load i64, ptr %3, align 8, !tbaa !8
  %15 = call ptr @lean_big_usize_to_nat(i64 noundef %14)
  store ptr %15, ptr %2, align 8
  br label %16

16:                                               ; preds = %13, %10
  %17 = load ptr, ptr %2, align 8
  ret ptr %17
}

; Function Attrs: alwaysinline nounwind uwtable
define internal zeroext i1 @lean_nat_eq(ptr noundef %0, ptr noundef %1) #0 {
  %3 = alloca i1, align 1
  %4 = alloca ptr, align 8
  %5 = alloca ptr, align 8
  store ptr %0, ptr %4, align 8, !tbaa !4
  store ptr %1, ptr %5, align 8, !tbaa !4
  %6 = load ptr, ptr %4, align 8, !tbaa !4
  %7 = call zeroext i1 @lean_is_scalar(ptr noundef %6)
  br i1 %7, label %8, label %11

8:                                                ; preds = %2
  %9 = load ptr, ptr %5, align 8, !tbaa !4
  %10 = call zeroext i1 @lean_is_scalar(ptr noundef %9)
  br label %11

11:                                               ; preds = %8, %2
  %12 = phi i1 [ false, %2 ], [ %10, %8 ]
  %13 = zext i1 %12 to i32
  %14 = sext i32 %13 to i64
  %15 = call i64 @llvm.expect.i64(i64 %14, i64 1)
  %16 = icmp ne i64 %15, 0
  br i1 %16, label %17, label %21

17:                                               ; preds = %11
  %18 = load ptr, ptr %4, align 8, !tbaa !4
  %19 = load ptr, ptr %5, align 8, !tbaa !4
  %20 = icmp eq ptr %18, %19
  store i1 %20, ptr %3, align 1
  br label %25

21:                                               ; preds = %11
  %22 = load ptr, ptr %4, align 8, !tbaa !4
  %23 = load ptr, ptr %5, align 8, !tbaa !4
  %24 = call zeroext i1 @lean_nat_big_eq(ptr noundef %22, ptr noundef %23)
  store i1 %24, ptr %3, align 1
  br label %25

25:                                               ; preds = %21, %17
  %26 = load i1, ptr %3, align 1
  ret i1 %26
}

; Function Attrs: inlinehint nounwind uwtable
define internal ptr @lean_unsigned_to_nat(i32 noundef %0) #1 {
  %2 = alloca i32, align 4
  store i32 %0, ptr %2, align 4, !tbaa !13
  %3 = load i32, ptr %2, align 4, !tbaa !13
  %4 = zext i32 %3 to i64
  %5 = call ptr @lean_usize_to_nat(i64 noundef %4)
  ret ptr %5
}

; Function Attrs: alwaysinline nounwind uwtable
define internal zeroext i8 @lean_nat_dec_eq(ptr noundef %0, ptr noundef %1) #0 {
  %3 = alloca ptr, align 8
  %4 = alloca ptr, align 8
  store ptr %0, ptr %3, align 8, !tbaa !4
  store ptr %1, ptr %4, align 8, !tbaa !4
  %5 = load ptr, ptr %3, align 8, !tbaa !4
  %6 = load ptr, ptr %4, align 8, !tbaa !4
  %7 = call zeroext i1 @lean_nat_eq(ptr noundef %5, ptr noundef %6)
  %8 = zext i1 %7 to i8
  ret i8 %8
}

; Function Attrs: nounwind uwtable
define ptr @l_Lake_Verbosity_toCtorIdx(i8 noundef zeroext %0) #2 {
  %2 = alloca ptr, align 8
  %3 = alloca i8, align 1
  %4 = alloca ptr, align 8
  %5 = alloca ptr, align 8
  %6 = alloca ptr, align 8
  store i8 %0, ptr %3, align 1, !tbaa !12
  br label %7

7:                                                ; preds = %1
  %8 = load i8, ptr %3, align 1, !tbaa !12
  %9 = zext i8 %8 to i32
  switch i32 %9, label %16 [
    i32 0, label %10
    i32 1, label %13
  ]

10:                                               ; preds = %7
  call void @llvm.lifetime.start.p0(i64 8, ptr %4) #7
  %11 = call ptr @lean_unsigned_to_nat(i32 noundef 0)
  store ptr %11, ptr %4, align 8, !tbaa !4
  %12 = load ptr, ptr %4, align 8, !tbaa !4
  store ptr %12, ptr %2, align 8
  call void @llvm.lifetime.end.p0(i64 8, ptr %4) #7
  br label %19

13:                                               ; preds = %7
  call void @llvm.lifetime.start.p0(i64 8, ptr %5) #7
  %14 = call ptr @lean_unsigned_to_nat(i32 noundef 1)
  store ptr %14, ptr %5, align 8, !tbaa !4
  %15 = load ptr, ptr %5, align 8, !tbaa !4
  store ptr %15, ptr %2, align 8
  call void @llvm.lifetime.end.p0(i64 8, ptr %5) #7
  br label %19

16:                                               ; preds = %7
  call void @llvm.lifetime.start.p0(i64 8, ptr %6) #7
  %17 = call ptr @lean_unsigned_to_nat(i32 noundef 2)
  store ptr %17, ptr %6, align 8, !tbaa !4
  %18 = load ptr, ptr %6, align 8, !tbaa !4
  store ptr %18, ptr %2, align 8
  call void @llvm.lifetime.end.p0(i64 8, ptr %6) #7
  br label %19

19:                                               ; preds = %16, %13, %10
  %20 = load ptr, ptr %2, align 8
  ret ptr %20
}

; Function Attrs: alwaysinline nounwind uwtable
define internal void @lean_dec_ref(ptr noundef %0) #0 {
  %2 = alloca ptr, align 8
  store ptr %0, ptr %2, align 8, !tbaa !4
  %3 = load ptr, ptr %2, align 8, !tbaa !4
  %4 = getelementptr inbounds nuw %struct.lean_object, ptr %3, i32 0, i32 0
  %5 = load i32, ptr %4, align 4, !tbaa !17
  %6 = icmp sgt i32 %5, 1
  %7 = zext i1 %6 to i32
  %8 = sext i32 %7 to i64
  %9 = call i64 @llvm.expect.i64(i64 %8, i64 1)
  %10 = icmp ne i64 %9, 0
  br i1 %10, label %11, label %16

11:                                               ; preds = %1
  %12 = load ptr, ptr %2, align 8, !tbaa !4
  %13 = getelementptr inbounds nuw %struct.lean_object, ptr %12, i32 0, i32 0
  %14 = load i32, ptr %13, align 4, !tbaa !17
  %15 = add i32 %14, -1
  store i32 %15, ptr %13, align 4, !tbaa !17
  br label %24

16:                                               ; preds = %1
  %17 = load ptr, ptr %2, align 8, !tbaa !4
  %18 = getelementptr inbounds nuw %struct.lean_object, ptr %17, i32 0, i32 0
  %19 = load i32, ptr %18, align 4, !tbaa !17
  %20 = icmp ne i32 %19, 0
  br i1 %20, label %21, label %23

21:                                               ; preds = %16
  %22 = load ptr, ptr %2, align 8, !tbaa !4
  call void @lean_dec_ref_cold(ptr noundef %22)
  br label %23

23:                                               ; preds = %21, %16
  br label %24

24:                                               ; preds = %23, %11
  ret void
}

; Function Attrs: alwaysinline nounwind uwtable
define internal zeroext i1 @lean_is_scalar(ptr noundef %0) #0 {
  %2 = alloca ptr, align 8
  store ptr %0, ptr %2, align 8, !tbaa !4
  %3 = load ptr, ptr %2, align 8, !tbaa !4
  %4 = ptrtoint ptr %3 to i64
  %5 = and i64 %4, 1
  %6 = icmp eq i64 %5, 1
  ret i1 %6
}

; Function Attrs: inlinehint nounwind uwtable
define internal ptr @lean_box(i64 noundef %0) #1 {
  %2 = alloca i64, align 8
  store i64 %0, ptr %2, align 8, !tbaa !8
  %3 = load i64, ptr %2, align 8, !tbaa !8
  %4 = shl i64 %3, 1
  %5 = or i64 %4, 1
  %6 = inttoptr i64 %5 to ptr
  ret ptr %6
}

; Function Attrs: nounwind uwtable
define zeroext i8 @l_Lake_instDecidableEqVerbosity(i8 noundef zeroext %0, i8 noundef zeroext %1) #2 {
  %3 = alloca i8, align 1
  %4 = alloca i8, align 1
  %5 = alloca ptr, align 8
  %6 = alloca ptr, align 8
  %7 = alloca i8, align 1
  store i8 %0, ptr %3, align 1, !tbaa !12
  store i8 %1, ptr %4, align 1, !tbaa !12
  br label %8

8:                                                ; preds = %2
  call void @llvm.lifetime.start.p0(i64 8, ptr %5) #7
  call void @llvm.lifetime.start.p0(i64 8, ptr %6) #7
  call void @llvm.lifetime.start.p0(i64 1, ptr %7) #7
  %9 = load i8, ptr %3, align 1, !tbaa !12
  %10 = call ptr @l_Lake_Verbosity_toCtorIdx(i8 noundef zeroext %9)
  store ptr %10, ptr %5, align 8, !tbaa !4
  %11 = load i8, ptr %4, align 1, !tbaa !12
  %12 = call ptr @l_Lake_Verbosity_toCtorIdx(i8 noundef zeroext %11)
  store ptr %12, ptr %6, align 8, !tbaa !4
  %13 = load ptr, ptr %5, align 8, !tbaa !4
  %14 = load ptr, ptr %6, align 8, !tbaa !4
  %15 = call zeroext i8 @lean_nat_dec_eq(ptr noundef %13, ptr noundef %14)
  store i8 %15, ptr %7, align 1, !tbaa !12
  %16 = load ptr, ptr %6, align 8, !tbaa !4
  call void @lean_dec(ptr noundef %16)
  %17 = load ptr, ptr %5, align 8, !tbaa !4
  call void @lean_dec(ptr noundef %17)
  %18 = load i8, ptr %7, align 1, !tbaa !12
  call void @llvm.lifetime.end.p0(i64 1, ptr %7) #7
  call void @llvm.lifetime.end.p0(i64 8, ptr %6) #7
  call void @llvm.lifetime.end.p0(i64 8, ptr %5) #7
  ret i8 %18
}

; Function Attrs: alwaysinline nounwind uwtable
define internal void @lean_dec(ptr noundef %0) #0 {
  %2 = alloca ptr, align 8
  store ptr %0, ptr %2, align 8, !tbaa !4
  %3 = load ptr, ptr %2, align 8, !tbaa !4
  %4 = call zeroext i1 @lean_is_scalar(ptr noundef %3)
  br i1 %4, label %7, label %5

5:                                                ; preds = %1
  %6 = load ptr, ptr %2, align 8, !tbaa !4
  call void @lean_dec_ref(ptr noundef %6)
  br label %7

7:                                                ; preds = %5, %1
  ret void
}

; Function Attrs: inlinehint nounwind uwtable
define internal i64 @lean_unbox(ptr noundef %0) #1 {
  %2 = alloca ptr, align 8
  store ptr %0, ptr %2, align 8, !tbaa !4
  %3 = load ptr, ptr %2, align 8, !tbaa !4
  %4 = ptrtoint ptr %3 to i64
  %5 = lshr i64 %4, 1
  ret i64 %5
}

; Function Attrs: nounwind uwtable
define ptr @l_Lake_instDecidableEqVerbosity___boxed(ptr noundef %0, ptr noundef %1) #2 {
  %3 = alloca ptr, align 8
  %4 = alloca ptr, align 8
  %5 = alloca i8, align 1
  %6 = alloca i8, align 1
  %7 = alloca i8, align 1
  %8 = alloca ptr, align 8
  store ptr %0, ptr %3, align 8, !tbaa !4
  store ptr %1, ptr %4, align 8, !tbaa !4
  br label %9

9:                                                ; preds = %2
  call void @llvm.lifetime.start.p0(i64 1, ptr %5) #7
  call void @llvm.lifetime.start.p0(i64 1, ptr %6) #7
  call void @llvm.lifetime.start.p0(i64 1, ptr %7) #7
  call void @llvm.lifetime.start.p0(i64 8, ptr %8) #7
  %10 = load ptr, ptr %3, align 8, !tbaa !4
  %11 = call i64 @lean_unbox(ptr noundef %10)
  %12 = trunc i64 %11 to i8
  store i8 %12, ptr %5, align 1, !tbaa !12
  %13 = load ptr, ptr %3, align 8, !tbaa !4
  call void @lean_dec(ptr noundef %13)
  %14 = load ptr, ptr %4, align 8, !tbaa !4
  %15 = call i64 @lean_unbox(ptr noundef %14)
  %16 = trunc i64 %15 to i8
  store i8 %16, ptr %6, align 1, !tbaa !12
  %17 = load ptr, ptr %4, align 8, !tbaa !4
  call void @lean_dec(ptr noundef %17)
  %18 = load i8, ptr %5, align 1, !tbaa !12
  %19 = load i8, ptr %6, align 1, !tbaa !12
  %20 = call zeroext i8 @l_Lake_instDecidableEqVerbosity(i8 noundef zeroext %18, i8 noundef zeroext %19)
  store i8 %20, ptr %7, align 1, !tbaa !12
  %21 = load i8, ptr %7, align 1, !tbaa !12
  %22 = zext i8 %21 to i64
  %23 = call ptr @lean_box(i64 noundef %22)
  store ptr %23, ptr %8, align 8, !tbaa !4
  %24 = load ptr, ptr %8, align 8, !tbaa !4
  call void @llvm.lifetime.end.p0(i64 8, ptr %8) #7
  call void @llvm.lifetime.end.p0(i64 1, ptr %7) #7
  call void @llvm.lifetime.end.p0(i64 1, ptr %6) #7
  call void @llvm.lifetime.end.p0(i64 1, ptr %5) #7
  ret ptr %24
}